; Function Attrs: nounwind uwtable
define noalias nonnull ptr @l_Lean_Environment_replayConsts_replayKernel___lambda__1___boxed(ptr noundef %0, ptr noundef %1) local_unnamed_addr #1 {
  tail call void @lean_inc_heartbeat() #10
  %3 = tail call noalias ptr @mi_malloc_small(i64 noundef 16) #10
  %4 = icmp eq ptr %3, null
  br i1 %4, label %5, label %l_Lean_Environment_replayConsts_replayKernel___lambda__1.exit

5:                                                ; preds = %2
  tail call void @lean_internal_panic_out_of_memory() #11
  unreachable

l_Lean_Environment_replayConsts_replayKernel___lambda__1.exit: ; preds = %2
  %6 = getelementptr inbounds nuw i8, ptr %3, i64 4
  store i32 1, ptr %3, align 4, !tbaa !4
  store i32 16842768, ptr %6, align 4
  %7 = getelementptr inbounds nuw i8, ptr %3, i64 8
  store ptr %0, ptr %7, align 8, !tbaa !9
  %8 = ptrtoint ptr %1 to i64
  %9 = and i64 %8, 1
  %.not = icmp eq i64 %9, 0
  br i1 %.not, label %10, label %lean_dec.exit

10:                                               ; preds = %l_Lean_Environment_replayConsts_replayKernel___lambda__1.exit
  %11 = load i32, ptr %1, align 4, !tbaa !4
  %12 = icmp sgt i32 %11, 1
  br i1 %12, label %13, label %15, !prof !11

13:                                               ; preds = %10
  %14 = add nsw i32 %11, -1
  store i32 %14, ptr %1, align 4, !tbaa !4
  br label %lean_dec.exit

15:                                               ; preds = %10
  %.not.i = icmp eq i32 %11, 0
  br i1 %.not.i, label %lean_dec.exit, label %16

16:                                               ; preds = %15
  tail call void @lean_dec_ref_cold(ptr noundef nonnull %1) #10
  br label %lean_dec.exit

lean_dec.exit:                                    ; preds = %16, %15, %13, %l_Lean_Environment_replayConsts_replayKernel___lambda__1.exit
  ret ptr %3
}